; Function Attrs: nounwind uwtable
define internal fastcc void @tear_down(ptr noundef %0) unnamed_addr #0 {
  %2 = getelementptr inbounds nuw i8, ptr %0, i64 8
  %3 = load ptr, ptr %2, align 8, !tbaa !25
  tail call void @OSSL_CMP_CTX_free(ptr noundef %3) #4
  %4 = getelementptr inbounds nuw i8, ptr %0, i64 32
  %5 = load ptr, ptr %4, align 8, !tbaa !26
  tail call void @OSSL_CMP_MSG_free(ptr noundef %5) #4
  %6 = getelementptr inbounds nuw i8, ptr %0, i64 48
  %7 = load ptr, ptr %6, align 8, !tbaa !27
  tail call void @OSSL_CMP_PKISI_free(ptr noundef %7) #4
  tail call void @CRYPTO_free(ptr noundef %0, ptr noundef nonnull @.str.14, i32 noundef 43) #4
  ret void
}